; Function Attrs: mustprogress nofree norecurse nosync nounwind willreturn memory(none) uwtable
define noundef i32 @_Z20getCoulombKernelTypeN5Nbnxm18EwaldExclusionTypeE22CoulombInteractionTypeb(i32 noundef %0, i32 noundef %1, i1 noundef zeroext %2) local_unnamed_addr #0 {
  switch i32 %1, label %4 [
    i32 1, label %_ZL7usingRFRK22CoulombInteractionType.exit.thread
    i32 2, label %_ZL7usingRFRK22CoulombInteractionType.exit.thread
    i32 11, label %_ZL7usingRFRK22CoulombInteractionType.exit.thread
    i32 16, label %_ZL7usingRFRK22CoulombInteractionType.exit.thread
    i32 0, label %_ZL7usingRFRK22CoulombInteractionType.exit.thread
  ]

4:                                                ; preds = %3
  %5 = icmp eq i32 %0, 1
  br i1 %5, label %6, label %7

6:                                                ; preds = %4
  %. = select i1 %2, i32 1, i32 2
  br label %_ZL7usingRFRK22CoulombInteractionType.exit.thread

7:                                                ; preds = %4
  %.5 = select i1 %2, i32 3, i32 4
  br label %_ZL7usingRFRK22CoulombInteractionType.exit.thread

_ZL7usingRFRK22CoulombInteractionType.exit.thread: ; preds = %3, %3, %3, %3, %3, %7, %6
  %.0 = phi i32 [ %., %6 ], [ %.5, %7 ], [ 0, %3 ], [ 0, %3 ], [ 0, %3 ], [ 0, %3 ], [ 0, %3 ]
  ret i32 %.0
}